target datalayout = "e-m:e-p270:32:32-p271:32:32-p272:64:64-i64:64-i128:128-f80:128-n8:16:32:64-S128"
target triple = "x86_64-pc-linux-gnu"

%"class.std::basic_string_view" = type { i64, ptr }
%"class.std::__cxx11::basic_string" = type { %"struct.std::__cxx11::basic_string<char>::_Alloc_hider", i64, %union.anon }
%"struct.std::__cxx11::basic_string<char>::_Alloc_hider" = type { ptr }
%union.anon = type { i64, [8 x i8] }
%"class.std::allocator.6" = type { i8 }

@.str = private unnamed_addr constant [48 x i8] c"'nix-store --serve' protocol mismatch from '%s'\00", align 1
@_ZTIN3nix5ErrorE = linkonce_odr constant { ptr, ptr, ptr } { ptr getelementptr inbounds (ptr, ptr @_ZTVN10__cxxabiv120__si_class_type_infoE, i64 2), ptr @_ZTSN3nix5ErrorE, ptr @_ZTIN3nix9BaseErrorE }, comdat, align 8
@.str.4 = private unnamed_addr constant [57 x i8] c"unsupported 'nix-store --serve' protocol version on '%s'\00", align 1

; Function Attrs: mustprogress nounwind uwtable
define linkonce_odr void @_ZNSt17basic_string_viewIcSt11char_traitsIcEEC2EPKcm(ptr noundef nonnull align 8 dereferenceable(16) %0, ptr noundef %1, i64 noundef %2) unnamed_addr #2 comdat align 2 {
  %4 = alloca ptr, align 8
  %5 = alloca ptr, align 8
  %6 = alloca i64, align 8
  store ptr %0, ptr %4, align 8
  store ptr %1, ptr %5, align 8
  store i64 %2, ptr %6, align 8
  %7 = load ptr, ptr %4, align 8
  %8 = getelementptr inbounds %"class.std::basic_string_view", ptr %7, i32 0, i32 0
  %9 = load i64, ptr %6, align 8
  store i64 %9, ptr %8, align 8
  %10 = getelementptr inbounds %"class.std::basic_string_view", ptr %7, i32 0, i32 1
  %11 = load ptr, ptr %5, align 8
  store ptr %11, ptr %10, align 8
  ret void
}

; Function Attrs: mustprogress uwtable
define linkonce_odr noundef i32 @_ZN3nix7readIntERNS_6SourceE(ptr noundef nonnull align 8 dereferenceable(8) %0) #5 comdat {
  %2 = alloca ptr, align 8
  store ptr %0, ptr %2, align 8
  %3 = load ptr, ptr %2, align 8
  %4 = call noundef i32 @_ZN3nix7readNumIjEET_RNS_6SourceE(ptr noundef nonnull align 8 dereferenceable(8) %3)
  ret i32 %4
}

; Function Attrs: mustprogress uwtable
define linkonce_odr noundef nonnull align 8 dereferenceable(8) ptr @_ZN3nixlsERNS_4SinkEm(ptr noundef nonnull align 8 dereferenceable(8) %0, i64 noundef %1) #5 comdat {
  %3 = alloca ptr, align 8
  %4 = alloca i64, align 8
  %5 = alloca [8 x i8], align 1
  %6 = alloca %"class.std::basic_string_view", align 8
  store ptr %0, ptr %3, align 8
  store i64 %1, ptr %4, align 8
  %7 = load i64, ptr %4, align 8
  %8 = and i64 %7, 255
  %9 = trunc i64 %8 to i8
  %10 = getelementptr inbounds [8 x i8], ptr %5, i64 0, i64 0
  store i8 %9, ptr %10, align 1
  %11 = load i64, ptr %4, align 8
  %12 = lshr i64 %11, 8
  %13 = and i64 %12, 255
  %14 = trunc i64 %13 to i8
  %15 = getelementptr inbounds [8 x i8], ptr %5, i64 0, i64 1
  store i8 %14, ptr %15, align 1
  %16 = load i64, ptr %4, align 8
  %17 = lshr i64 %16, 16
  %18 = and i64 %17, 255
  %19 = trunc i64 %18 to i8
  %20 = getelementptr inbounds [8 x i8], ptr %5, i64 0, i64 2
  store i8 %19, ptr %20, align 1
  %21 = load i64, ptr %4, align 8
  %22 = lshr i64 %21, 24
  %23 = and i64 %22, 255
  %24 = trunc i64 %23 to i8
  %25 = getelementptr inbounds [8 x i8], ptr %5, i64 0, i64 3
  store i8 %24, ptr %25, align 1
  %26 = load i64, ptr %4, align 8
  %27 = lshr i64 %26, 32
  %28 = and i64 %27, 255
  %29 = trunc i64 %28 to i8
  %30 = getelementptr inbounds [8 x i8], ptr %5, i64 0, i64 4
  store i8 %29, ptr %30, align 1
  %31 = load i64, ptr %4, align 8
  %32 = lshr i64 %31, 40
  %33 = and i64 %32, 255
  %34 = trunc i64 %33 to i8
  %35 = getelementptr inbounds [8 x i8], ptr %5, i64 0, i64 5
  store i8 %34, ptr %35, align 1
  %36 = load i64, ptr %4, align 8
  %37 = lshr i64 %36, 48
  %38 = and i64 %37, 255
  %39 = trunc i64 %38 to i8
  %40 = getelementptr inbounds [8 x i8], ptr %5, i64 0, i64 6
  store i8 %39, ptr %40, align 1
  %41 = load i64, ptr %4, align 8
  %42 = lshr i64 %41, 56
  %43 = trunc i64 %42 to i8
  %44 = zext i8 %43 to i32
  %45 = and i32 %44, 255
  %46 = trunc i32 %45 to i8
  %47 = getelementptr inbounds [8 x i8], ptr %5, i64 0, i64 7
  store i8 %46, ptr %47, align 1
  %48 = load ptr, ptr %3, align 8
  %49 = getelementptr inbounds [8 x i8], ptr %5, i64 0, i64 0
  call void @_ZNSt17basic_string_viewIcSt11char_traitsIcEEC2EPKcm(ptr noundef nonnull align 8 dereferenceable(16) %6, ptr noundef %49, i64 noundef 8) #1
  %50 = getelementptr inbounds { i64, ptr }, ptr %6, i32 0, i32 0
  %51 = load i64, ptr %50, align 8
  %52 = getelementptr inbounds { i64, ptr }, ptr %6, i32 0, i32 1
  %53 = load ptr, ptr %52, align 8
  %54 = load ptr, ptr %48, align 8
  %55 = getelementptr inbounds ptr, ptr %54, i64 2
  %56 = load ptr, ptr %55, align 8
  call void %56(ptr noundef nonnull align 8 dereferenceable(8) %48, i64 %51, ptr %53)
  %57 = load ptr, ptr %3, align 8
  ret ptr %57
}

; Function Attrs: mustprogress uwtable
define noundef i32 @_ZN3nix10ServeProto21BasicClientConnection9handshakeERNS_12BufferedSinkERNS_6SourceEjSt17basic_string_viewIcSt11char_traitsIcEE(ptr noundef nonnull align 8 dereferenceable(32) %0, ptr noundef nonnull align 8 dereferenceable(8) %1, i32 noundef %2, i64 %3, ptr %4) #5 align 2 personality ptr @__gxx_personality_v0 {
  %6 = alloca %"class.std::basic_string_view", align 8
  %7 = alloca ptr, align 8
  %8 = alloca ptr, align 8
  %9 = alloca i32, align 4
  %10 = alloca i32, align 4
  %11 = alloca %"class.std::__cxx11::basic_string", align 8
  %12 = alloca %"class.std::allocator.6", align 1
  %13 = alloca ptr, align 8
  %14 = alloca i32, align 4
  %15 = alloca i1, align 1
  %16 = alloca i32, align 4
  %17 = alloca %"class.std::__cxx11::basic_string", align 8
  %18 = alloca %"class.std::allocator.6", align 1
  %19 = alloca i1, align 1
  %20 = getelementptr inbounds { i64, ptr }, ptr %6, i32 0, i32 0
  store i64 %3, ptr %20, align 8
  %21 = getelementptr inbounds { i64, ptr }, ptr %6, i32 0, i32 1
  store ptr %4, ptr %21, align 8
  store ptr %0, ptr %7, align 8
  store ptr %1, ptr %8, align 8
  store i32 %2, ptr %9, align 4
  %22 = load ptr, ptr %7, align 8
  %23 = load ptr, ptr %22, align 8
  %24 = getelementptr i8, ptr %23, i64 -48
  %25 = load i64, ptr %24, align 8
  %26 = getelementptr inbounds i8, ptr %22, i64 %25
  %27 = call noundef nonnull align 8 dereferenceable(8) ptr @_ZN3nixlsERNS_4SinkEm(ptr noundef nonnull align 8 dereferenceable(8) %26, i64 noundef 957128171)
  %28 = load i32, ptr %9, align 4
  %29 = zext i32 %28 to i64
  %30 = call noundef nonnull align 8 dereferenceable(8) ptr @_ZN3nixlsERNS_4SinkEm(ptr noundef nonnull align 8 dereferenceable(8) %27, i64 noundef %29)
  %31 = load ptr, ptr %7, align 8
  call void @_ZN3nix12BufferedSink5flushEv(ptr noundef nonnull align 8 dereferenceable(32) %31)
  %32 = load ptr, ptr %8, align 8
  %33 = call noundef i32 @_ZN3nix7readIntERNS_6SourceE(ptr noundef nonnull align 8 dereferenceable(8) %32)
  store i32 %33, ptr %10, align 4
  %34 = load i32, ptr %10, align 4
  %35 = icmp ne i32 %34, 1414721227
  br i1 %35, label %36, label %52

36:                                               ; preds = %5
  store i1 true, ptr %15, align 1
  %37 = call ptr @__cxa_allocate_exception(i64 376) #1
  call void @_ZNSaIcEC1Ev(ptr noundef nonnull align 1 dereferenceable(1) %12) #1
  invoke void @_ZNSt7__cxx1112basic_stringIcSt11char_traitsIcESaIcEEC2IS3_EEPKcRKS3_(ptr noundef nonnull align 8 dereferenceable(32) %11, ptr noundef @.str, ptr noundef nonnull align 1 dereferenceable(1) %12)
          to label %38 unwind label %40

38:                                               ; preds = %36
  invoke void @_ZN3nix5ErrorCI2NS_9BaseErrorEIJSt17basic_string_viewIcSt11char_traitsIcEEEEERKNSt7__cxx1112basic_stringIcS3_SaIcEEEDpRKT_(ptr noundef nonnull align 8 dereferenceable(376) %37, ptr noundef nonnull align 8 dereferenceable(32) %11, ptr noundef nonnull align 8 dereferenceable(16) %6)
          to label %39 unwind label %44

39:                                               ; preds = %38
  store i1 false, ptr %15, align 1
  invoke void @__cxa_throw(ptr %37, ptr @_ZTIN3nix5ErrorE, ptr @_ZN3nix5ErrorD2Ev) #16
          to label %81 unwind label %44

40:                                               ; preds = %36
  %41 = landingpad { ptr, i32 }
          cleanup
  %42 = extractvalue { ptr, i32 } %41, 0
  store ptr %42, ptr %13, align 8
  %43 = extractvalue { ptr, i32 } %41, 1
  store i32 %43, ptr %14, align 4
  br label %48

44:                                               ; preds = %39, %38
  %45 = landingpad { ptr, i32 }
          cleanup
  %46 = extractvalue { ptr, i32 } %45, 0
  store ptr %46, ptr %13, align 8
  %47 = extractvalue { ptr, i32 } %45, 1
  store i32 %47, ptr %14, align 4
  call void @_ZNSt7__cxx1112basic_stringIcSt11char_traitsIcESaIcEED2Ev(ptr noundef nonnull align 8 dereferenceable(32) %11) #1
  br label %48

48:                                               ; preds = %44, %40
  call void @_ZNSaIcED1Ev(ptr noundef nonnull align 1 dereferenceable(1) %12) #1
  %49 = load i1, ptr %15, align 1
  br i1 %49, label %50, label %51

50:                                               ; preds = %48
  call void @__cxa_free_exception(ptr %37) #1
  br label %51

51:                                               ; preds = %50, %48
  br label %76

52:                                               ; preds = %5
  %53 = load ptr, ptr %8, align 8
  %54 = call noundef i32 @_ZN3nix7readIntERNS_6SourceE(ptr noundef nonnull align 8 dereferenceable(8) %53)
  store i32 %54, ptr %16, align 4
  %55 = load i32, ptr %16, align 4
  %56 = and i32 %55, 65280
  %57 = icmp ne i32 %56, 512
  br i1 %57, label %58, label %74

58:                                               ; preds = %52
  store i1 true, ptr %19, align 1
  %59 = call ptr @__cxa_allocate_exception(i64 376) #1
  call void @_ZNSaIcEC1Ev(ptr noundef nonnull align 1 dereferenceable(1) %18) #1
  invoke void @_ZNSt7__cxx1112basic_stringIcSt11char_traitsIcESaIcEEC2IS3_EEPKcRKS3_(ptr noundef nonnull align 8 dereferenceable(32) %17, ptr noundef @.str.4, ptr noundef nonnull align 1 dereferenceable(1) %18)
          to label %60 unwind label %62

60:                                               ; preds = %58
  invoke void @_ZN3nix5ErrorCI2NS_9BaseErrorEIJSt17basic_string_viewIcSt11char_traitsIcEEEEERKNSt7__cxx1112basic_stringIcS3_SaIcEEEDpRKT_(ptr noundef nonnull align 8 dereferenceable(376) %59, ptr noundef nonnull align 8 dereferenceable(32) %17, ptr noundef nonnull align 8 dereferenceable(16) %6)
          to label %61 unwind label %66

61:                                               ; preds = %60
  store i1 false, ptr %19, align 1
  invoke void @__cxa_throw(ptr %59, ptr @_ZTIN3nix5ErrorE, ptr @_ZN3nix5ErrorD2Ev) #16
          to label %81 unwind label %66

62:                                               ; preds = %58
  %63 = landingpad { ptr, i32 }
          cleanup
  %64 = extractvalue { ptr, i32 } %63, 0
  store ptr %64, ptr %13, align 8
  %65 = extractvalue { ptr, i32 } %63, 1
  store i32 %65, ptr %14, align 4
  br label %70

66:                                               ; preds = %61, %60
  %67 = landingpad { ptr, i32 }
          cleanup
  %68 = extractvalue { ptr, i32 } %67, 0
  store ptr %68, ptr %13, align 8
  %69 = extractvalue { ptr, i32 } %67, 1
  store i32 %69, ptr %14, align 4
  call void @_ZNSt7__cxx1112basic_stringIcSt11char_traitsIcESaIcEED2Ev(ptr noundef nonnull align 8 dereferenceable(32) %17) #1
  br label %70

70:                                               ; preds = %66, %62
  call void @_ZNSaIcED1Ev(ptr noundef nonnull align 1 dereferenceable(1) %18) #1
  %71 = load i1, ptr %19, align 1
  br i1 %71, label %72, label %73

72:                                               ; preds = %70
  call void @__cxa_free_exception(ptr %59) #1
  br label %73

73:                                               ; preds = %72, %70
  br label %76

74:                                               ; preds = %52
  %75 = load i32, ptr %16, align 4
  ret i32 %75

76:                                               ; preds = %73, %51
  %77 = load ptr, ptr %13, align 8
  %78 = load i32, ptr %14, align 4
  %79 = insertvalue { ptr, i32 } poison, ptr %77, 0
  %80 = insertvalue { ptr, i32 } %79, i32 %78, 1
  resume { ptr, i32 } %80

81:                                               ; preds = %61, %39
  unreachable
}