; Function Attrs: mustprogress uwtable
define noundef i32 @_ZN3nix10ServeProto21BasicClientConnection9handshakeERNS_12BufferedSinkERNS_6SourceEjSt17basic_string_viewIcSt11char_traitsIcEE(ptr noundef nonnull align 8 dereferenceable(32) %0, ptr noundef nonnull align 8 dereferenceable(8) %1, i32 noundef %2, i64 %3, ptr %4) local_unnamed_addr #4 align 2 personality ptr @__gxx_personality_v0 {
  %6 = alloca [8 x i8], align 1
  %7 = alloca [8 x i8], align 4
  %8 = alloca %"class.std::basic_string_view", align 8
  %9 = alloca %"class.std::__cxx11::basic_string", align 8
  %10 = alloca %"class.std::allocator.6", align 1
  %11 = alloca %"class.std::__cxx11::basic_string", align 8
  %12 = alloca %"class.std::allocator.6", align 1
  store i64 %3, ptr %8, align 8
  %13 = getelementptr inbounds i8, ptr %8, i64 8
  store ptr %4, ptr %13, align 8
  %14 = load ptr, ptr %0, align 8
  %15 = getelementptr i8, ptr %14, i64 -48
  %16 = load i64, ptr %15, align 8
  %17 = getelementptr inbounds i8, ptr %0, i64 %16
  call void @llvm.lifetime.start.p0(i64 8, ptr nonnull %7)
  store <4 x i8> <i8 -21, i8 -99, i8 12, i8 57>, ptr %7, align 4
  %18 = getelementptr inbounds i8, ptr %7, i64 4
  store i32 0, ptr %18, align 4
  %19 = load ptr, ptr %17, align 8
  %20 = getelementptr inbounds i8, ptr %19, i64 16
  %21 = load ptr, ptr %20, align 8
  call void %21(ptr noundef nonnull align 8 dereferenceable(8) %17, i64 8, ptr nonnull %7)
  call void @llvm.lifetime.end.p0(i64 8, ptr nonnull %7)
  call void @llvm.lifetime.start.p0(i64 8, ptr nonnull %6)
  %22 = trunc i32 %2 to i8
  store i8 %22, ptr %6, align 1
  %23 = lshr i32 %2, 8
  %24 = trunc i32 %23 to i8
  %25 = getelementptr inbounds i8, ptr %6, i64 1
  store i8 %24, ptr %25, align 1
  %26 = lshr i32 %2, 16
  %27 = trunc i32 %26 to i8
  %28 = getelementptr inbounds i8, ptr %6, i64 2
  store i8 %27, ptr %28, align 1
  %29 = lshr i32 %2, 24
  %30 = trunc i32 %29 to i8
  %31 = getelementptr inbounds i8, ptr %6, i64 3
  store i8 %30, ptr %31, align 1
  %32 = getelementptr inbounds i8, ptr %6, i64 4
  store i32 0, ptr %32, align 1
  %33 = load ptr, ptr %17, align 8
  %34 = getelementptr inbounds i8, ptr %33, i64 16
  %35 = load ptr, ptr %34, align 8
  call void %35(ptr noundef nonnull align 8 dereferenceable(8) %17, i64 8, ptr nonnull %6)
  call void @llvm.lifetime.end.p0(i64 8, ptr nonnull %6)
  call void @_ZN3nix12BufferedSink5flushEv(ptr noundef nonnull align 8 dereferenceable(32) %0)
  %36 = call noundef i32 @_ZN3nix7readNumIjEET_RNS_6SourceE(ptr noundef nonnull align 8 dereferenceable(8) %1)
  %.not = icmp eq i32 %36, 1414721227
  br i1 %.not, label %44, label %37

37:                                               ; preds = %5
  %38 = call ptr @__cxa_allocate_exception(i64 376) #21
  call void @_ZNSaIcEC1Ev(ptr noundef nonnull align 1 dereferenceable(1) %10) #21
  invoke void @_ZNSt7__cxx1112basic_stringIcSt11char_traitsIcESaIcEEC2IS3_EEPKcRKS3_(ptr noundef nonnull align 8 dereferenceable(32) %9, ptr noundef nonnull @.str, ptr noundef nonnull align 1 dereferenceable(1) %10)
          to label %39 unwind label %.thread

39:                                               ; preds = %37
  invoke void @_ZN3nix5ErrorCI2NS_9BaseErrorEIJSt17basic_string_viewIcSt11char_traitsIcEEEEERKNSt7__cxx1112basic_stringIcS3_SaIcEEEDpRKT_(ptr noundef nonnull align 8 dereferenceable(376) %38, ptr noundef nonnull align 8 dereferenceable(32) %9, ptr noundef nonnull align 8 dereferenceable(16) %8)
          to label %40 unwind label %42

40:                                               ; preds = %39
  invoke void @__cxa_throw(ptr nonnull %38, ptr nonnull @_ZTIN3nix5ErrorE, ptr nonnull @_ZN3nix5ErrorD2Ev) #22
          to label %56 unwind label %42

.thread:                                          ; preds = %37
  %41 = landingpad { ptr, i32 }
          cleanup
  br label %.sink.split.sink.split

42:                                               ; preds = %39, %40
  %.013 = phi i1 [ false, %40 ], [ true, %39 ]
  %43 = landingpad { ptr, i32 }
          cleanup
  call void @_ZNSt7__cxx1112basic_stringIcSt11char_traitsIcESaIcEED2Ev(ptr noundef nonnull align 8 dereferenceable(32) %9) #21
  call void @_ZNSaIcED1Ev(ptr noundef nonnull align 1 dereferenceable(1) %10) #21
  br i1 %.013, label %.sink.split, label %55

44:                                               ; preds = %5
  %45 = call noundef i32 @_ZN3nix7readNumIjEET_RNS_6SourceE(ptr noundef nonnull align 8 dereferenceable(8) %1)
  %46 = and i32 %45, 65280
  %.not18 = icmp eq i32 %46, 512
  br i1 %.not18, label %54, label %47

47:                                               ; preds = %44
  %48 = call ptr @__cxa_allocate_exception(i64 376) #21
  call void @_ZNSaIcEC1Ev(ptr noundef nonnull align 1 dereferenceable(1) %12) #21
  invoke void @_ZNSt7__cxx1112basic_stringIcSt11char_traitsIcESaIcEEC2IS3_EEPKcRKS3_(ptr noundef nonnull align 8 dereferenceable(32) %11, ptr noundef nonnull @.str.4, ptr noundef nonnull align 1 dereferenceable(1) %12)
          to label %49 unwind label %.thread26

49:                                               ; preds = %47
  invoke void @_ZN3nix5ErrorCI2NS_9BaseErrorEIJSt17basic_string_viewIcSt11char_traitsIcEEEEERKNSt7__cxx1112basic_stringIcS3_SaIcEEEDpRKT_(ptr noundef nonnull align 8 dereferenceable(376) %48, ptr noundef nonnull align 8 dereferenceable(32) %11, ptr noundef nonnull align 8 dereferenceable(16) %8)
          to label %50 unwind label %52

50:                                               ; preds = %49
  invoke void @__cxa_throw(ptr nonnull %48, ptr nonnull @_ZTIN3nix5ErrorE, ptr nonnull @_ZN3nix5ErrorD2Ev) #22
          to label %56 unwind label %52

.thread26:                                        ; preds = %47
  %51 = landingpad { ptr, i32 }
          cleanup
  br label %.sink.split.sink.split

52:                                               ; preds = %49, %50
  %.0 = phi i1 [ false, %50 ], [ true, %49 ]
  %53 = landingpad { ptr, i32 }
          cleanup
  call void @_ZNSt7__cxx1112basic_stringIcSt11char_traitsIcESaIcEED2Ev(ptr noundef nonnull align 8 dereferenceable(32) %11) #21
  call void @_ZNSaIcED1Ev(ptr noundef nonnull align 1 dereferenceable(1) %12) #21
  br i1 %.0, label %.sink.split, label %55

54:                                               ; preds = %44
  ret i32 %45

.sink.split.sink.split:                           ; preds = %.thread, %.thread26
  %.sink30 = phi ptr [ %12, %.thread26 ], [ %10, %.thread ]
  %.sink.ph = phi ptr [ %48, %.thread26 ], [ %38, %.thread ]
  %.pn20.pn.ph.ph = phi { ptr, i32 } [ %51, %.thread26 ], [ %41, %.thread ]
  call void @_ZNSaIcED1Ev(ptr noundef nonnull align 1 dereferenceable(1) %.sink30) #21
  br label %.sink.split

.sink.split:                                      ; preds = %.sink.split.sink.split, %52, %42
  %.sink = phi ptr [ %38, %42 ], [ %48, %52 ], [ %.sink.ph, %.sink.split.sink.split ]
  %.pn20.pn.ph = phi { ptr, i32 } [ %43, %42 ], [ %53, %52 ], [ %.pn20.pn.ph.ph, %.sink.split.sink.split ]
  call void @__cxa_free_exception(ptr %.sink) #21
  br label %55

55:                                               ; preds = %.sink.split, %52, %42
  %.pn20.pn = phi { ptr, i32 } [ %43, %42 ], [ %53, %52 ], [ %.pn20.pn.ph, %.sink.split ]
  resume { ptr, i32 } %.pn20.pn

56:                                               ; preds = %50, %40
  unreachable
}